target datalayout = "e-m:e-p270:32:32-p271:32:32-p272:64:64-i64:64-i128:128-f80:128-n8:16:32:64-S128"
target triple = "x86_64-pc-linux-gnu"

%"struct.faiss::IndexIVFPQ" = type { %"struct.faiss::IndexIVF.base", %"struct.faiss::ProductQuantizer", i8, ptr, i64, i32, i32, %"struct.faiss::AlignedTable" }
%"struct.faiss::IndexIVF.base" = type <{ %"struct.faiss::Index.base", [4 x i8], %"struct.faiss::IndexIVFInterface", ptr, i8, [7 x i8], i64, i32, i32, %"struct.faiss::DirectMap", i8 }>
%"struct.faiss::Index.base" = type <{ ptr, i32, [4 x i8], i64, i8, i8, [2 x i8], i32, float }>
%"struct.faiss::IndexIVFInterface" = type { ptr, %"struct.faiss::Level1Quantizer", i64, i64 }
%"struct.faiss::Level1Quantizer" = type { ptr, i64, i8, i8, [6 x i8], %"struct.faiss::ClusteringParameters", ptr }
%"struct.faiss::ClusteringParameters" = type <{ i32, i32, i8, i8, i8, i8, i8, [3 x i8], i32, i32, i32, [4 x i8], i64, i8, i8, [6 x i8] }>
%"struct.faiss::DirectMap" = type { i32, %"class.std::vector", %"class.std::unordered_map" }
%"class.std::vector" = type { %"struct.std::_Vector_base" }
%"struct.std::_Vector_base" = type { %"struct.std::_Vector_base<long, std::allocator<long>>::_Vector_impl" }
%"struct.std::_Vector_base<long, std::allocator<long>>::_Vector_impl" = type { %"struct.std::_Vector_base<long, std::allocator<long>>::_Vector_impl_data" }
%"struct.std::_Vector_base<long, std::allocator<long>>::_Vector_impl_data" = type { ptr, ptr, ptr }
%"class.std::unordered_map" = type { %"class.std::_Hashtable" }
%"class.std::_Hashtable" = type { ptr, i64, %"struct.std::__detail::_Hash_node_base", i64, %"struct.std::__detail::_Prime_rehash_policy", ptr }
%"struct.std::__detail::_Hash_node_base" = type { ptr }
%"struct.std::__detail::_Prime_rehash_policy" = type { float, i64 }
%"struct.faiss::ProductQuantizer" = type { %"struct.faiss::Quantizer", i64, i64, i64, i64, i8, i32, %"struct.faiss::ClusteringParameters", ptr, %"class.std::vector.5", %"class.std::vector.5", %"class.std::vector.5", %"class.std::vector.5" }
%"struct.faiss::Quantizer" = type { ptr, i64, i64 }
%"class.std::vector.5" = type { %"struct.std::_Vector_base.6" }
%"struct.std::_Vector_base.6" = type { %"struct.std::_Vector_base<float, std::allocator<float>>::_Vector_impl" }
%"struct.std::_Vector_base<float, std::allocator<float>>::_Vector_impl" = type { %"struct.std::_Vector_base<float, std::allocator<float>>::_Vector_impl_data" }
%"struct.std::_Vector_base<float, std::allocator<float>>::_Vector_impl_data" = type { ptr, ptr, ptr }
%"struct.faiss::AlignedTable" = type { %"struct.faiss::AlignedTableTightAlloc", i64 }
%"struct.faiss::AlignedTableTightAlloc" = type { ptr, i64 }
%"struct.faiss::IndexIVF" = type <{ %"struct.faiss::Index.base", [4 x i8], %"struct.faiss::IndexIVFInterface", ptr, i8, [7 x i8], i64, i32, i32, %"struct.faiss::DirectMap", i8, [7 x i8] }>
%"struct.faiss::PolysemousTraining" = type { %"struct.faiss::SimulatedAnnealingParameters.base", i32, i32, double, i64, %"class.std::__cxx11::basic_string" }
%"struct.faiss::SimulatedAnnealingParameters.base" = type <{ double, double, i32, i32, i32, i32, i8, i8 }>
%"class.std::__cxx11::basic_string" = type { %"struct.std::__cxx11::basic_string<char>::_Alloc_hider", i64, %union.anon }
%"struct.std::__cxx11::basic_string<char>::_Alloc_hider" = type { ptr }
%union.anon = type { i64, [8 x i8] }
%"struct.faiss::Index" = type <{ ptr, i32, [4 x i8], i64, i8, i8, [2 x i8], i32, float, [4 x i8] }>

@.str = private unnamed_addr constant [34 x i8] c"doing polysemous training for PQ\0A\00", align 1

; Function Attrs: mustprogress nounwind uwtable
define linkonce_odr void @_ZNSt15__new_allocatorIcE10deallocateEPcm(ptr noundef nonnull align 1 dereferenceable(1) %0, ptr noundef %1, i64 noundef %2) #3 comdat align 2 {
  %4 = alloca ptr, align 8
  %5 = alloca ptr, align 8
  %6 = alloca i64, align 8
  store ptr %0, ptr %4, align 8, !tbaa !123
  store ptr %1, ptr %5, align 8, !tbaa !13
  store i64 %2, ptr %6, align 8, !tbaa !11
  %7 = load ptr, ptr %5, align 8, !tbaa !13
  %8 = load i64, ptr %6, align 8, !tbaa !11
  %9 = mul i64 %8, 1
  call void @_ZdlPvm(ptr noundef %7, i64 noundef %9) #23
  ret void
}

; Function Attrs: mustprogress nounwind uwtable
define linkonce_odr noundef ptr @_ZNSt19__ptr_traits_ptr_toIPKcS0_Lb0EE10pointer_toERS0_(ptr noundef nonnull align 1 dereferenceable(1) %0) #3 comdat align 2 {
  %2 = alloca ptr, align 8
  store ptr %0, ptr %2, align 8, !tbaa !13
  %3 = load ptr, ptr %2, align 8, !tbaa !13
  ret ptr %3
}

; Function Attrs: mustprogress uwtable
define linkonce_odr void @_ZNSt16allocator_traitsISaIcEE10deallocateERS0_Pcm(ptr noundef nonnull align 1 dereferenceable(1) %0, ptr noundef %1, i64 noundef %2) #2 comdat align 2 {
  %4 = alloca ptr, align 8
  %5 = alloca ptr, align 8
  %6 = alloca i64, align 8
  store ptr %0, ptr %4, align 8, !tbaa !121
  store ptr %1, ptr %5, align 8, !tbaa !13
  store i64 %2, ptr %6, align 8, !tbaa !11
  %7 = load ptr, ptr %4, align 8, !tbaa !121
  %8 = load ptr, ptr %5, align 8, !tbaa !13
  %9 = load i64, ptr %6, align 8, !tbaa !11
  call void @_ZNSt15__new_allocatorIcE10deallocateEPcm(ptr noundef nonnull align 1 dereferenceable(1) %7, ptr noundef %8, i64 noundef %9)
  ret void
}

; Function Attrs: mustprogress nounwind uwtable
define available_externally noundef nonnull align 1 dereferenceable(1) ptr @_ZNSt7__cxx1112basic_stringIcSt11char_traitsIcESaIcEE16_M_get_allocatorEv(ptr noundef nonnull align 8 dereferenceable(32) %0) #3 align 2 {
  %2 = alloca ptr, align 8
  store ptr %0, ptr %2, align 8, !tbaa !114
  %3 = load ptr, ptr %2, align 8
  %4 = getelementptr inbounds nuw %"class.std::__cxx11::basic_string", ptr %3, i32 0, i32 0
  ret ptr %4
}

; Function Attrs: mustprogress nounwind uwtable
define available_externally noundef ptr @_ZNKSt7__cxx1112basic_stringIcSt11char_traitsIcESaIcEE13_M_local_dataEv(ptr noundef nonnull align 8 dereferenceable(32) %0) #3 align 2 {
  %2 = alloca ptr, align 8
  store ptr %0, ptr %2, align 8, !tbaa !114
  %3 = load ptr, ptr %2, align 8
  %4 = getelementptr inbounds nuw %"class.std::__cxx11::basic_string", ptr %3, i32 0, i32 2
  %5 = getelementptr inbounds [16 x i8], ptr %4, i64 0, i64 0
  %6 = call noundef ptr @_ZNSt19__ptr_traits_ptr_toIPKcS0_Lb0EE10pointer_toERS0_(ptr noundef nonnull align 1 dereferenceable(1) %5) #18
  ret ptr %6
}

; Function Attrs: mustprogress nounwind uwtable
define available_externally noundef ptr @_ZNKSt7__cxx1112basic_stringIcSt11char_traitsIcESaIcEE7_M_dataEv(ptr noundef nonnull align 8 dereferenceable(32) %0) #3 align 2 {
  %2 = alloca ptr, align 8
  store ptr %0, ptr %2, align 8, !tbaa !114
  %3 = load ptr, ptr %2, align 8
  %4 = getelementptr inbounds nuw %"class.std::__cxx11::basic_string", ptr %3, i32 0, i32 0
  %5 = getelementptr inbounds nuw %"struct.std::__cxx11::basic_string<char>::_Alloc_hider", ptr %4, i32 0, i32 0
  %6 = load ptr, ptr %5, align 8, !tbaa !120
  ret ptr %6
}

; Function Attrs: mustprogress nounwind uwtable
define available_externally void @_ZNSt7__cxx1112basic_stringIcSt11char_traitsIcESaIcEE10_M_destroyEm(ptr noundef nonnull align 8 dereferenceable(32) %0, i64 noundef %1) #3 align 2 personality ptr @__gxx_personality_v0 {
  %3 = alloca ptr, align 8
  %4 = alloca i64, align 8
  store ptr %0, ptr %3, align 8, !tbaa !114
  store i64 %1, ptr %4, align 8, !tbaa !11
  %5 = load ptr, ptr %3, align 8
  %6 = invoke noundef nonnull align 1 dereferenceable(1) ptr @_ZNSt7__cxx1112basic_stringIcSt11char_traitsIcESaIcEE16_M_get_allocatorEv(ptr noundef nonnull align 8 dereferenceable(32) %5)
          to label %7 unwind label %12

7:                                                ; preds = %2
  %8 = call noundef ptr @_ZNKSt7__cxx1112basic_stringIcSt11char_traitsIcESaIcEE7_M_dataEv(ptr noundef nonnull align 8 dereferenceable(32) %5)
  %9 = load i64, ptr %4, align 8, !tbaa !11
  %10 = add i64 %9, 1
  invoke void @_ZNSt16allocator_traitsISaIcEE10deallocateERS0_Pcm(ptr noundef nonnull align 1 dereferenceable(1) %6, ptr noundef %8, i64 noundef %10)
          to label %11 unwind label %12

11:                                               ; preds = %7
  ret void

12:                                               ; preds = %7, %2
  %13 = landingpad { ptr, i32 }
          catch ptr null
  %14 = extractvalue { ptr, i32 } %13, 0
  call void @__clang_call_terminate(ptr %14) #24
  unreachable
}

; Function Attrs: mustprogress uwtable
define available_externally noundef zeroext i1 @_ZNKSt7__cxx1112basic_stringIcSt11char_traitsIcESaIcEE11_M_is_localEv(ptr noundef nonnull align 8 dereferenceable(32) %0) #2 align 2 {
  %2 = alloca i1, align 1
  %3 = alloca ptr, align 8
  store ptr %0, ptr %3, align 8, !tbaa !114
  %4 = load ptr, ptr %3, align 8
  %5 = call noundef ptr @_ZNKSt7__cxx1112basic_stringIcSt11char_traitsIcESaIcEE7_M_dataEv(ptr noundef nonnull align 8 dereferenceable(32) %4)
  %6 = call noundef ptr @_ZNKSt7__cxx1112basic_stringIcSt11char_traitsIcESaIcEE13_M_local_dataEv(ptr noundef nonnull align 8 dereferenceable(32) %4)
  %7 = icmp eq ptr %5, %6
  br i1 %7, label %8, label %14

8:                                                ; preds = %1
  %9 = getelementptr inbounds nuw %"class.std::__cxx11::basic_string", ptr %4, i32 0, i32 1
  %10 = load i64, ptr %9, align 8, !tbaa !117
  %11 = icmp ugt i64 %10, 15
  br i1 %11, label %12, label %13

12:                                               ; preds = %8
  unreachable

13:                                               ; preds = %8
  store i1 true, ptr %2, align 1
  br label %15

14:                                               ; preds = %1
  store i1 false, ptr %2, align 1
  br label %15

15:                                               ; preds = %14, %13
  %16 = load i1, ptr %2, align 1
  ret i1 %16
}

; Function Attrs: noinline noreturn nounwind uwtable
define linkonce_odr hidden void @__clang_call_terminate(ptr noundef %0) #8 comdat {
  %2 = call ptr @__cxa_begin_catch(ptr %0) #18
  call void @_ZSt9terminatev() #24
  unreachable
}

; Function Attrs: mustprogress nounwind uwtable
define linkonce_odr void @_ZNSt15__new_allocatorIcED2Ev(ptr noundef nonnull align 1 dereferenceable(1) %0) unnamed_addr #3 comdat align 2 {
  %2 = alloca ptr, align 8
  store ptr %0, ptr %2, align 8, !tbaa !123
  ret void
}

; Function Attrs: mustprogress uwtable
define available_externally void @_ZNSt7__cxx1112basic_stringIcSt11char_traitsIcESaIcEE10_M_disposeEv(ptr noundef nonnull align 8 dereferenceable(32) %0) #2 align 2 {
  %2 = alloca ptr, align 8
  store ptr %0, ptr %2, align 8, !tbaa !114
  %3 = load ptr, ptr %2, align 8
  %4 = call noundef zeroext i1 @_ZNKSt7__cxx1112basic_stringIcSt11char_traitsIcESaIcEE11_M_is_localEv(ptr noundef nonnull align 8 dereferenceable(32) %3)
  br i1 %4, label %8, label %5

5:                                                ; preds = %1
  %6 = getelementptr inbounds nuw %"class.std::__cxx11::basic_string", ptr %3, i32 0, i32 2
  %7 = load i64, ptr %6, align 8, !tbaa !116
  call void @_ZNSt7__cxx1112basic_stringIcSt11char_traitsIcESaIcEE10_M_destroyEm(ptr noundef nonnull align 8 dereferenceable(32) %3, i64 noundef %7) #18
  br label %8

8:                                                ; preds = %5, %1
  ret void
}

; Function Attrs: mustprogress nounwind uwtable
define available_externally void @_ZNSt7__cxx1112basic_stringIcSt11char_traitsIcESaIcEED2Ev(ptr noundef nonnull align 8 dereferenceable(32) %0) unnamed_addr #3 align 2 personality ptr @__gxx_personality_v0 {
  %2 = alloca ptr, align 8
  store ptr %0, ptr %2, align 8, !tbaa !114
  %3 = load ptr, ptr %2, align 8
  invoke void @_ZNSt7__cxx1112basic_stringIcSt11char_traitsIcESaIcEE10_M_disposeEv(ptr noundef nonnull align 8 dereferenceable(32) %3)
          to label %4 unwind label %6

4:                                                ; preds = %1
  %5 = getelementptr inbounds nuw %"class.std::__cxx11::basic_string", ptr %3, i32 0, i32 0
  call void @_ZNSt15__new_allocatorIcED2Ev(ptr noundef nonnull align 8 dereferenceable(8) %5) #18
  ret void

6:                                                ; preds = %1
  %7 = landingpad { ptr, i32 }
          catch ptr null
  %8 = extractvalue { ptr, i32 } %7, 0
  call void @__clang_call_terminate(ptr %8) #24
  unreachable
}

; Function Attrs: mustprogress uwtable
define void @_ZN5faiss10IndexIVFPQ16precompute_tableEv(ptr noundef nonnull align 8 dereferenceable(544) %0) #2 align 2 {
  %2 = alloca ptr, align 8
  store ptr %0, ptr %2, align 8, !tbaa !4
  %3 = load ptr, ptr %2, align 8
  %4 = getelementptr inbounds nuw %"struct.faiss::IndexIVFPQ", ptr %3, i32 0, i32 6
  %5 = getelementptr inbounds i8, ptr %3, i64 48
  %6 = getelementptr inbounds nuw %"struct.faiss::Level1Quantizer", ptr %5, i32 0, i32 0
  %7 = load ptr, ptr %6, align 8, !tbaa !47
  %8 = getelementptr inbounds nuw %"struct.faiss::IndexIVFPQ", ptr %3, i32 0, i32 1
  %9 = getelementptr inbounds nuw %"struct.faiss::IndexIVFPQ", ptr %3, i32 0, i32 7
  %10 = getelementptr inbounds nuw %"struct.faiss::IndexIVF", ptr %3, i32 0, i32 10
  %11 = load i8, ptr %10, align 8, !tbaa !22, !range !45, !noundef !46
  %12 = trunc i8 %11 to i1
  %13 = getelementptr inbounds nuw %"struct.faiss::Index", ptr %3, i32 0, i32 4
  %14 = load i8, ptr %13, align 8, !tbaa !63, !range !45, !noundef !46
  %15 = trunc i8 %14 to i1
  call void @_ZN5faiss34initialize_IVFPQ_precomputed_tableERiPKNS_5IndexERKNS_16ProductQuantizerERNS_12AlignedTableIfLi32EEEbb(ptr noundef nonnull align 4 dereferenceable(4) %4, ptr noundef %7, ptr noundef nonnull align 8 dereferenceable(216) %8, ptr noundef nonnull align 8 dereferenceable(24) %9, i1 noundef zeroext %12, i1 noundef zeroext %15)
  ret void
}

; Function Attrs: inlinehint mustprogress nounwind uwtable
define linkonce_odr void @_ZN5faiss18PolysemousTrainingD2Ev(ptr noundef nonnull align 8 dereferenceable(96) %0) unnamed_addr #0 comdat align 2 {
  %2 = alloca ptr, align 8
  store ptr %0, ptr %2, align 8, !tbaa !65
  %3 = load ptr, ptr %2, align 8
  %4 = getelementptr inbounds nuw %"struct.faiss::PolysemousTraining", ptr %3, i32 0, i32 5
  call void @_ZNSt7__cxx1112basic_stringIcSt11char_traitsIcESaIcEED2Ev(ptr noundef nonnull align 8 dereferenceable(32) %4) #18
  ret void
}

; Function Attrs: mustprogress uwtable
define void @_ZN5faiss10IndexIVFPQ13train_encoderElPKfPKl(ptr noundef nonnull align 8 dereferenceable(544) %0, i64 noundef %1, ptr noundef %2, ptr noundef %3) unnamed_addr #2 align 2 personality ptr @__gxx_personality_v0 {
  %5 = alloca ptr, align 8
  %6 = alloca i64, align 8
  %7 = alloca ptr, align 8
  %8 = alloca ptr, align 8
  %9 = alloca %"struct.faiss::PolysemousTraining", align 8
  %10 = alloca ptr, align 8
  %11 = alloca ptr, align 8
  %12 = alloca i32, align 4
  store ptr %0, ptr %5, align 8, !tbaa !4
  store i64 %1, ptr %6, align 8, !tbaa !11
  store ptr %2, ptr %7, align 8, !tbaa !15
  store ptr %3, ptr %8, align 8, !tbaa !17
  %13 = load ptr, ptr %5, align 8
  %14 = getelementptr inbounds nuw %"struct.faiss::IndexIVFPQ", ptr %13, i32 0, i32 1
  %15 = load i64, ptr %6, align 8, !tbaa !11
  %16 = load ptr, ptr %7, align 8, !tbaa !15
  call void @_ZN5faiss16ProductQuantizer5trainEmPKf(ptr noundef nonnull align 8 dereferenceable(216) %14, i64 noundef %15, ptr noundef %16)
  %17 = getelementptr inbounds nuw %"struct.faiss::IndexIVFPQ", ptr %13, i32 0, i32 2
  %18 = load i8, ptr %17, align 8, !tbaa !51, !range !45, !noundef !46
  %19 = trunc i8 %18 to i1
  br i1 %19, label %20, label %45

20:                                               ; preds = %4
  %21 = getelementptr inbounds nuw %"struct.faiss::Index", ptr %13, i32 0, i32 4
  %22 = load i8, ptr %21, align 8, !tbaa !63, !range !45, !noundef !46
  %23 = trunc i8 %22 to i1
  br i1 %23, label %24, label %26

24:                                               ; preds = %20
  %25 = call i32 (ptr, ...) @printf(ptr noundef @.str)
  br label %26

26:                                               ; preds = %24, %20
  call void @llvm.lifetime.start.p0(i64 96, ptr %9) #18
  call void @_ZN5faiss18PolysemousTrainingC1Ev(ptr noundef nonnull align 8 dereferenceable(96) %9)
  call void @llvm.lifetime.start.p0(i64 8, ptr %10) #18
  %27 = getelementptr inbounds nuw %"struct.faiss::IndexIVFPQ", ptr %13, i32 0, i32 3
  %28 = load ptr, ptr %27, align 8, !tbaa !64
  %29 = icmp ne ptr %28, null
  br i1 %29, label %30, label %33

30:                                               ; preds = %26
  %31 = getelementptr inbounds nuw %"struct.faiss::IndexIVFPQ", ptr %13, i32 0, i32 3
  %32 = load ptr, ptr %31, align 8, !tbaa !64
  br label %34

33:                                               ; preds = %26
  br label %34

34:                                               ; preds = %33, %30
  %35 = phi ptr [ %32, %30 ], [ %9, %33 ]
  store ptr %35, ptr %10, align 8, !tbaa !65
  %36 = load ptr, ptr %10, align 8, !tbaa !65
  %37 = getelementptr inbounds nuw %"struct.faiss::IndexIVFPQ", ptr %13, i32 0, i32 1
  %38 = load i64, ptr %6, align 8, !tbaa !11
  %39 = load ptr, ptr %7, align 8, !tbaa !15
  invoke void @_ZNK5faiss18PolysemousTraining23optimize_pq_for_hammingERNS_16ProductQuantizerEmPKf(ptr noundef nonnull align 8 dereferenceable(96) %36, ptr noundef nonnull align 8 dereferenceable(216) %37, i64 noundef %38, ptr noundef %39)
          to label %40 unwind label %41

40:                                               ; preds = %34
  call void @llvm.lifetime.end.p0(i64 8, ptr %10) #18
  call void @_ZN5faiss18PolysemousTrainingD2Ev(ptr noundef nonnull align 8 dereferenceable(96) %9) #18
  call void @llvm.lifetime.end.p0(i64 96, ptr %9) #18
  br label %45

41:                                               ; preds = %34
  %42 = landingpad { ptr, i32 }
          cleanup
  %43 = extractvalue { ptr, i32 } %42, 0
  store ptr %43, ptr %11, align 8
  %44 = extractvalue { ptr, i32 } %42, 1
  store i32 %44, ptr %12, align 4
  call void @llvm.lifetime.end.p0(i64 8, ptr %10) #18
  call void @_ZN5faiss18PolysemousTrainingD2Ev(ptr noundef nonnull align 8 dereferenceable(96) %9) #18
  call void @llvm.lifetime.end.p0(i64 96, ptr %9) #18
  br label %51

45:                                               ; preds = %40, %4
  %46 = getelementptr inbounds nuw %"struct.faiss::IndexIVF", ptr %13, i32 0, i32 10
  %47 = load i8, ptr %46, align 8, !tbaa !22, !range !45, !noundef !46
  %48 = trunc i8 %47 to i1
  br i1 %48, label %49, label %50

49:                                               ; preds = %45
  call void @_ZN5faiss10IndexIVFPQ16precompute_tableEv(ptr noundef nonnull align 8 dereferenceable(544) %13)
  br label %50

50:                                               ; preds = %49, %45
  ret void

51:                                               ; preds = %41
  %52 = load ptr, ptr %11, align 8
  %53 = load i32, ptr %12, align 4
  %54 = insertvalue { ptr, i32 } poison, ptr %52, 0
  %55 = insertvalue { ptr, i32 } %54, i32 %53, 1
  resume { ptr, i32 } %55
}