; Function Attrs: mustprogress uwtable
define void @_ZN5faiss10IndexIVFPQ13train_encoderElPKfPKl(ptr noundef nonnull align 8 dereferenceable(544) %0, i64 noundef %1, ptr noundef %2, ptr readnone captures(none) %3) unnamed_addr #2 align 2 personality ptr @__gxx_personality_v0 {
  %5 = alloca %"struct.faiss::PolysemousTraining", align 8
  %6 = getelementptr inbounds nuw i8, ptr %0, i64 272
  tail call void @_ZN5faiss16ProductQuantizer5trainEmPKf(ptr noundef nonnull align 8 dereferenceable(216) %6, i64 noundef %1, ptr noundef %2)
  %7 = getelementptr inbounds nuw i8, ptr %0, i64 488
  %8 = load i8, ptr %7, align 8, !tbaa !56, !range !45, !noundef !46
  %9 = trunc nuw i8 %8 to i1
  br i1 %9, label %10, label %39

10:                                               ; preds = %4
  %11 = getelementptr inbounds nuw i8, ptr %0, i64 24
  %12 = load i8, ptr %11, align 8, !tbaa !66, !range !45, !noundef !46
  %13 = trunc nuw i8 %12 to i1
  br i1 %13, label %14, label %15

14:                                               ; preds = %10
  %puts = tail call i32 @puts(ptr nonnull dereferenceable(1) @str)
  br label %15

15:                                               ; preds = %14, %10
  call void @llvm.lifetime.start.p0(i64 96, ptr nonnull %5) #17
  call void @_ZN5faiss18PolysemousTrainingC1Ev(ptr noundef nonnull align 8 dereferenceable(96) %5)
  %16 = getelementptr inbounds nuw i8, ptr %0, i64 496
  %17 = load ptr, ptr %16, align 8, !tbaa !67
  %.not = icmp eq ptr %17, null
  %spec.select = select i1 %.not, ptr %5, ptr %17
  invoke void @_ZNK5faiss18PolysemousTraining23optimize_pq_for_hammingERNS_16ProductQuantizerEmPKf(ptr noundef nonnull align 8 dereferenceable(96) %spec.select, ptr noundef nonnull align 8 dereferenceable(216) %6, i64 noundef %1, ptr noundef %2)
          to label %18 unwind label %28

18:                                               ; preds = %15
  %19 = getelementptr inbounds nuw i8, ptr %5, i64 64
  %20 = load ptr, ptr %19, align 8, !tbaa !68
  %21 = getelementptr inbounds nuw i8, ptr %5, i64 80
  %22 = icmp eq ptr %20, %21
  br i1 %22, label %_ZNKSt7__cxx1112basic_stringIcSt11char_traitsIcESaIcEE11_M_is_localEv.exit.thread.i.i.i, label %_ZNKSt7__cxx1112basic_stringIcSt11char_traitsIcESaIcEE11_M_is_localEv.exit.i.i.i

_ZNKSt7__cxx1112basic_stringIcSt11char_traitsIcESaIcEE11_M_is_localEv.exit.thread.i.i.i: ; preds = %18
  %23 = getelementptr inbounds nuw i8, ptr %5, i64 72
  %24 = load i64, ptr %23, align 8, !tbaa !71
  %25 = icmp ult i64 %24, 16
  call void @llvm.assume(i1 %25)
  br label %_ZN5faiss18PolysemousTrainingD2Ev.exit

_ZNKSt7__cxx1112basic_stringIcSt11char_traitsIcESaIcEE11_M_is_localEv.exit.i.i.i: ; preds = %18
  %26 = load i64, ptr %21, align 8, !tbaa !72
  %27 = add i64 %26, 1
  call void @_ZdlPvm(ptr noundef %20, i64 noundef %27) #33
  br label %_ZN5faiss18PolysemousTrainingD2Ev.exit

_ZN5faiss18PolysemousTrainingD2Ev.exit:           ; preds = %_ZNKSt7__cxx1112basic_stringIcSt11char_traitsIcESaIcEE11_M_is_localEv.exit.thread.i.i.i, %_ZNKSt7__cxx1112basic_stringIcSt11char_traitsIcESaIcEE11_M_is_localEv.exit.i.i.i
  call void @llvm.lifetime.end.p0(i64 96, ptr nonnull %5) #17
  br label %39

28:                                               ; preds = %15
  %29 = landingpad { ptr, i32 }
          cleanup
  %30 = getelementptr inbounds nuw i8, ptr %5, i64 64
  %31 = load ptr, ptr %30, align 8, !tbaa !68
  %32 = getelementptr inbounds nuw i8, ptr %5, i64 80
  %33 = icmp eq ptr %31, %32
  br i1 %33, label %_ZNKSt7__cxx1112basic_stringIcSt11char_traitsIcESaIcEE11_M_is_localEv.exit.thread.i.i.i8, label %_ZNKSt7__cxx1112basic_stringIcSt11char_traitsIcESaIcEE11_M_is_localEv.exit.i.i.i7

_ZNKSt7__cxx1112basic_stringIcSt11char_traitsIcESaIcEE11_M_is_localEv.exit.thread.i.i.i8: ; preds = %28
  %34 = getelementptr inbounds nuw i8, ptr %5, i64 72
  %35 = load i64, ptr %34, align 8, !tbaa !71
  %36 = icmp ult i64 %35, 16
  call void @llvm.assume(i1 %36)
  br label %_ZN5faiss18PolysemousTrainingD2Ev.exit9

_ZNKSt7__cxx1112basic_stringIcSt11char_traitsIcESaIcEE11_M_is_localEv.exit.i.i.i7: ; preds = %28
  %37 = load i64, ptr %32, align 8, !tbaa !72
  %38 = add i64 %37, 1
  call void @_ZdlPvm(ptr noundef %31, i64 noundef %38) #33
  br label %_ZN5faiss18PolysemousTrainingD2Ev.exit9

_ZN5faiss18PolysemousTrainingD2Ev.exit9:          ; preds = %_ZNKSt7__cxx1112basic_stringIcSt11char_traitsIcESaIcEE11_M_is_localEv.exit.thread.i.i.i8, %_ZNKSt7__cxx1112basic_stringIcSt11char_traitsIcESaIcEE11_M_is_localEv.exit.i.i.i7
  call void @llvm.lifetime.end.p0(i64 96, ptr nonnull %5) #17
  resume { ptr, i32 } %29

39:                                               ; preds = %_ZN5faiss18PolysemousTrainingD2Ev.exit, %4
  %40 = getelementptr inbounds nuw i8, ptr %0, i64 264
  %41 = load i8, ptr %40, align 8, !tbaa !20, !range !45, !noundef !46
  %42 = trunc nuw i8 %41 to i1
  br i1 %42, label %43, label %51

43:                                               ; preds = %39
  %44 = getelementptr inbounds nuw i8, ptr %0, i64 516
  %45 = getelementptr inbounds nuw i8, ptr %0, i64 48
  %46 = load ptr, ptr %45, align 8, !tbaa !47
  %47 = getelementptr inbounds nuw i8, ptr %0, i64 520
  %48 = getelementptr inbounds nuw i8, ptr %0, i64 24
  %49 = load i8, ptr %48, align 8, !tbaa !66, !range !45, !noundef !46
  %50 = trunc nuw i8 %49 to i1
  call void @_ZN5faiss34initialize_IVFPQ_precomputed_tableERiPKNS_5IndexERKNS_16ProductQuantizerERNS_12AlignedTableIfLi32EEEbb(ptr noundef nonnull align 4 dereferenceable(4) %44, ptr noundef %46, ptr noundef nonnull align 8 dereferenceable(216) %6, ptr noundef nonnull align 8 dereferenceable(24) %47, i1 noundef zeroext true, i1 noundef zeroext %50)
  br label %51

51:                                               ; preds = %43, %39
  ret void
}